(dp1
S'output'
p2
S"<type 'exceptions.UnicodeEncodeError'> 'ascii' codec can't encode character u'\\u200c' in position 3: ordinal not in range(128)"
p3
sS'layer'
p4
S'/Users/amonmoce/Documents/MobileTechAndAppli/web2py/applications/ElectionsStats/controllers/default.py'
p5
sS'code'
p6
S'# -*- coding: utf-8 -*-\n# this file is released under public domain and you can use without limitations\n\n#########################################################################\n## This is a sample controller\n## - index is the default action of any application\n## - user is required for authentication and authorization\n## - download is for downloading files uploaded in the db (does streaming)\n#########################################################################\nimport requests\nfrom lxml import html\nimport unicodedata\n\ndef index():\n    """\n    example action using the internationalization operator T and flash\n    rendered by views/default/index.html or views/generic.html\n\n    if you need a simple wiki simply replace the two lines below with:\n    return auth.wiki()\n    """\n    response.flash = T("Hello World")\n    return dict(message=T(\'Welcome to web2py!\'))\n\n\ndef user():\n    """\n    exposes:\n    http://..../[app]/default/user/login\n    http://..../[app]/default/user/logout\n    http://..../[app]/default/user/register\n    http://..../[app]/default/user/profile\n    http://..../[app]/default/user/retrieve_password\n    http://..../[app]/default/user/change_password\n    http://..../[app]/default/user/manage_users (requires membership in\n    http://..../[app]/default/user/bulk_register\n    use @auth.requires_login()\n        @auth.requires_membership(\'group name\')\n        @auth.requires_permission(\'read\',\'table name\',record_id)\n    to decorate functions that need access control\n    """\n    return dict(form=auth())\n\n\n@cache.action()\ndef download():\n    """\n    allows downloading of uploaded files\n    http://..../[app]/default/download/[filename]\n    """\n    return response.download(request, db)\n\n\ndef call():\n    """\n    exposes services. for example:\n    http://..../[app]/default/call/jsonrpc\n    decorate with @services.jsonrpc the functions to expose\n    supports xml, json, xmlrpc, jsonrpc, amfrpc, rss, csv\n    """\n    return service()\n\ndef encode_data(numbers):\n    encode_numbers = []\n    for array in numbers:\n        new_array = []\n        for element in array:\n            new_array.append(element.encode(\'ascii\'))\n        encode_numbers.append(new_array)\n    print encode_numbers\n    return encode_numbers\n\n\ndef scrapeData(countryValue, whichData):\n    url = \'http://www.idea.int/vt/countryview.cfm?id=\'+countryValue\n    page = requests.get(url)\n    tree = html.fromstring(page.content)\n    data = tree.xpath(\'//table[@id="viewData"]\')\n    data_years = data[1].xpath(\'//td/text()\')\n    data_years = data_years[21:]\n    data_years = data_years[:-6]\n    data = data[1].xpath(\'//td/div/text()\')\n    data = data[7:]\n    data = data[:-3]\n    year_index = 0\n    presidentials = {}\n    parliamentaries = {}\n    numbers = []\n    line = []\n    parliamentary_years_size = 0\n    for i in range(0, len(data_years)):\n        if data_years[i] < data_years[i+1]:\n            break\n        parliamentary_years_size = parliamentary_years_size + 1\n    for i, em in enumerate(data):\n        if em == \'No\' or em == \'Yes\':\n            numbers.append(line)\n            year_index =+1\n            line = []\n        else:\n             line.append(data[i])\n    data = {}\n    numbers = encode_data(numbers)\n    for i in range(0, len(data_years)):\n        if i <= parliamentary_years_size:\n            parliamentaries[data_years[i]] = numbers[i]\n        else:\n            presidentials[data_years[i]] = numbers[i]\n    #0,VT 1,TV 2,R 4,VAP 5,P 6,IV\n    if whichData == \'VT\':\n        return presidentials, parliamentaries, 0\n    if whichData == \'TV\':\n        return presidentials, parliamentaries, 1\n    if whichData == \'R\':\n        return presidentials, parliamentaries, 2\n    if whichData == \'VAP\':\n        return presidentials, parliamentaries, 4\n    if whichData == \'P\':\n        return presidentials, parliamentaries, 5\n    if whichData == \'IV\':\n        return presidentials, parliamentaries, 6\n\n\ndef getPresidentialsByCountry():\n    countryValue = request.vars[\'country\']\n    whichData = request.vars[\'whichData\']\n    presidentials, parliamentaries, specificData = scrapeData(str(countryValue), str(whichData))\n    response.headers[\'Content-Type\'] = \'text/plain\'\n    results = []\n    for year in presidentials:\n        results.append("Year:"+year +", Data:"+ presidentials[year][specificData])\n    return \'\\n\'.join(results)\n\n\ndef getPresidentialsByYear():\n    pass\n\n\ndef getParliamentariesByCountry():\n    countryValue = request.vars[\'country\']\n    whichData = request.vars[\'whichData\']\n    presidentials, parliamentaries, specificData = scrapeData(str(countryValue), str(whichData))\n    response.headers[\'Content-Type\'] = \'text/html\'\n    results = []\n    for year in parliamentaries:\n        results.append("Year: "+year +", Data: "+ parliamentaries[year][specificData])\n    results.append("<a href=\'#\'>Go back</a>")\n    return \'<br>\'.join(results)\n\n\ndef getParliamentariesByYear():\n    pass\n\nresponse._vars=response._caller(getParliamentariesByCountry)\n'
p7
sS'snapshot'
p8
(dp9
S'exception'
p10
(dp11
S'__getslice__'
p12
S"<method-wrapper '__getslice__' of exceptions.UnicodeEncodeError object>"
p13
sS'encoding'
p14
S"'ascii'"
p15
sS'__str__'
p16
S"<method-wrapper '__str__' of exceptions.UnicodeEncodeError object>"
p17
sS'__reduce__'
p18
S'<built-in method __reduce__ of exceptions.UnicodeEncodeError object>'
p19
sS'__dict__'
p20
S'{}'
p21
sS'__sizeof__'
p22
S'<built-in method __sizeof__ of exceptions.UnicodeEncodeError object>'
p23
sS'__init__'
p24
S"<method-wrapper '__init__' of exceptions.UnicodeEncodeError object>"
p25
sS'__setattr__'
p26
S"<method-wrapper '__setattr__' of exceptions.UnicodeEncodeError object>"
p27
sS'__reduce_ex__'
p28
S'<built-in method __reduce_ex__ of exceptions.UnicodeEncodeError object>'
p29
sS'end'
p30
S'4'
sS'__new__'
p31
S'<built-in method __new__ of type object>'
p32
sS'__format__'
p33
S'<built-in method __format__ of exceptions.UnicodeEncodeError object>'
p34
sS'__class__'
p35
S"<type 'exceptions.UnicodeEncodeError'>"
p36
sS'start'
p37
S'3'
sS'__doc__'
p38
S"'Unicode encoding error.'"
p39
sS'object'
p40
S"u'74.\\u200c70'"
p41
sS'__getitem__'
p42
S"<method-wrapper '__getitem__' of exceptions.UnicodeEncodeError object>"
p43
sS'__setstate__'
p44
S'<built-in method __setstate__ of exceptions.UnicodeEncodeError object>'
p45
sS'__getattribute__'
p46
S"<method-wrapper '__getattribute__' of exceptions.UnicodeEncodeError object>"
p47
sS'args'
p48
S"('ascii', u'74.\\u200c70', 3, 4, 'ordinal not in range(128)')"
p49
sS'reason'
p50
S"'ordinal not in range(128)'"
p51
sS'__subclasshook__'
p52
S'<built-in method __subclasshook__ of type object>'
p53
sS'__unicode__'
p54
S'<built-in method __unicode__ of exceptions.UnicodeEncodeError object>'
p55
sS'__delattr__'
p56
S"<method-wrapper '__delattr__' of exceptions.UnicodeEncodeError object>"
p57
sS'__repr__'
p58
S"<method-wrapper '__repr__' of exceptions.UnicodeEncodeError object>"
p59
sS'__hash__'
p60
S"<method-wrapper '__hash__' of exceptions.UnicodeEncodeError object>"
p61
ssS'evalue'
p62
S"'ascii' codec can't encode character u'\\u200c' in position 3: ordinal not in range(128)"
p63
sS'request'
p64
cgluon.html
XML_unpickle
p65
(S's\x04]\x00\x00<div><table><tr><td style="font-weight:bold;vertical-align:top;">ajax</td><td style="vertical-align:top;">:</td><td><div>False</div></td></tr><tr><td style="font-weight:bold;vertical-align:top;">application</td><td style="vertical-align:top;">:</td><td><div>ElectionsStats</div></td></tr><tr><td style="font-weight:bold;vertical-align:top;">args</td><td style="vertical-align:top;">:</td><td><div><table></table></div></td></tr><tr><td style="font-weight:bold;vertical-align:top;">cid</td><td style="vertical-align:top;">:</td><td><div>None</div></td></tr><tr><td style="font-weight:bold;vertical-align:top;">client</td><td style="vertical-align:top;">:</td><td><div>127.0.0.1</div></td></tr><tr><td style="font-weight:bold;vertical-align:top;">controller</td><td style="vertical-align:top;">:</td><td><div>default</div></td></tr><tr><td style="font-weight:bold;vertical-align:top;">cookies</td><td style="vertical-align:top;">:</td><td><div><table><tr><td style="font-weight:bold;vertical-align:top;">session_id_admin</td><td style="vertical-align:top;">:</td><td><div>127.0.0.1-fd669924-4f7e-4f69-8607-c37ad4546bce<table><tr><td style="font-weight:bold;vertical-align:top;">comment</td><td style="vertical-align:top;">:</td><td><div></div></td></tr><tr><td style="font-weight:bold;vertical-align:top;">domain</td><td style="vertical-align:top;">:</td><td><div></div></td></tr><tr><td style="font-weight:bold;vertical-align:top;">expires</td><td style="vertical-align:top;">:</td><td><div></div></td></tr><tr><td style="font-weight:bold;vertical-align:top;">httponly</td><td style="vertical-align:top;">:</td><td><div></div></td></tr><tr><td style="font-weight:bold;vertical-align:top;">max-age</td><td style="vertical-align:top;">:</td><td><div></div></td></tr><tr><td style="font-weight:bold;vertical-align:top;">path</td><td style="vertical-align:top;">:</td><td><div></div></td></tr><tr><td style="font-weight:bold;vertical-align:top;">secure</td><td style="vertical-align:top;">:</td><td><div></div></td></tr><tr><td style="font-weight:bold;vertical-align:top;">version</td><td style="vertical-align:top;">:</td><td><div></div></td></tr></table></div></td></tr><tr><td style="font-weight:bold;vertical-align:top;">session_id_electionsstats</td><td style="vertical-align:top;">:</td><td><div>127.0.0.1-df3905b2-a9c7-4e42-8a7e-8a720059605c<table><tr><td style="font-weight:bold;vertical-align:top;">comment</td><td style="vertical-align:top;">:</td><td><div></div></td></tr><tr><td style="font-weight:bold;vertical-align:top;">domain</td><td style="vertical-align:top;">:</td><td><div></div></td></tr><tr><td style="font-weight:bold;vertical-align:top;">expires</td><td style="vertical-align:top;">:</td><td><div></div></td></tr><tr><td style="font-weight:bold;vertical-align:top;">httponly</td><td style="vertical-align:top;">:</td><td><div></div></td></tr><tr><td style="font-weight:bold;vertical-align:top;">max-age</td><td style="vertical-align:top;">:</td><td><div></div></td></tr><tr><td style="font-weight:bold;vertical-align:top;">path</td><td style="vertical-align:top;">:</td><td><div></div></td></tr><tr><td style="font-weight:bold;vertical-align:top;">secure</td><td style="vertical-align:top;">:</td><td><div></div></td></tr><tr><td style="font-weight:bold;vertical-align:top;">version</td><td style="vertical-align:top;">:</td><td><div></div></td></tr></table></div></td></tr><tr><td style="font-weight:bold;vertical-align:top;">session_id_welcome</td><td style="vertical-align:top;">:</td><td><div>127.0.0.1-2502e344-71c7-41dc-8bca-6797cc82709e<table><tr><td style="font-weight:bold;vertical-align:top;">comment</td><td style="vertical-align:top;">:</td><td><div></div></td></tr><tr><td style="font-weight:bold;vertical-align:top;">domain</td><td style="vertical-align:top;">:</td><td><div></div></td></tr><tr><td style="font-weight:bold;vertical-align:top;">expires</td><td style="vertical-align:top;">:</td><td><div></div></td></tr><tr><td style="font-weight:bold;vertical-align:top;">httponly</td><td style="vertical-align:top;">:</td><td><div></div></td></tr><tr><td style="font-weight:bold;vertical-align:top;">max-age</td><td style="vertical-align:top;">:</td><td><div></div></td></tr><tr><td style="font-weight:bold;vertical-align:top;">path</td><td style="vertical-align:top;">:</td><td><div></div></td></tr><tr><td style="font-weight:bold;vertical-align:top;">secure</td><td style="vertical-align:top;">:</td><td><div></div></td></tr><tr><td style="font-weight:bold;vertical-align:top;">version</td><td style="vertical-align:top;">:</td><td><div></div></td></tr></table></div></td></tr></table></div></td></tr><tr><td style="font-weight:bold;vertical-align:top;">env</td><td style="vertical-align:top;">:</td><td><div><table><tr><td style="font-weight:bold;vertical-align:top;">HTTP_ACCEPT</td><td style="vertical-align:top;">:</td><td><div>text/html,application/xhtml+xml,application/xml;q=0.9,*/*;q=0.8</div></td></tr><tr><td style="font-weight:bold;vertical-align:top;">HTTP_ACCEPT_ENCODING</td><td style="vertical-align:top;">:</td><td><div>gzip, deflate</div></td></tr><tr><td style="font-weight:bold;vertical-align:top;">HTTP_ACCEPT_LANGUAGE</td><td style="vertical-align:top;">:</td><td><div>en-US,en;q=0.5</div></td></tr><tr><td style="font-weight:bold;vertical-align:top;">HTTP_CONNECTION</td><td style="vertical-align:top;">:</td><td><div>keep-alive</div></td></tr><tr><td style="font-weight:bold;vertical-align:top;">HTTP_COOKIE</td><td style="vertical-align:top;">:</td><td><div>session_id_welcome=127.0.0.1-2502e344-71c7-41dc-8bca-6797cc82709e; session_id_electionsstats=127.0.0.1-df3905b2-a9c7-4e42-8a7e-8a720059605c; session_id_admin=127.0.0.1-fd669924-4f7e-4f69-8607-c37ad4546bce</div></td></tr><tr><td style="font-weight:bold;vertical-align:top;">HTTP_HOST</td><td style="vertical-align:top;">:</td><td><div>127.0.0.1:8000</div></td></tr><tr><td style="font-weight:bold;vertical-align:top;">HTTP_USER_AGENT</td><td style="vertical-align:top;">:</td><td><div>Mozilla/5.0 (Macintosh; Intel Mac OS X 10.11; rv:43.0) Gecko/20100101 Firefox/43.0</div></td></tr><tr><td style="font-weight:bold;vertical-align:top;">PATH_INFO</td><td style="vertical-align:top;">:</td><td><div>/ElectionsStats/default/getParliamentariesByCountry</div></td></tr><tr><td style="font-weight:bold;vertical-align:top;">QUERY_STRING</td><td style="vertical-align:top;">:</td><td><div>country=226&amp;whichData=VT</div></td></tr><tr><td style="font-weight:bold;vertical-align:top;">REMOTE_ADDR</td><td style="vertical-align:top;">:</td><td><div>127.0.0.1</div></td></tr><tr><td style="font-weight:bold;vertical-align:top;">REMOTE_PORT</td><td style="vertical-align:top;">:</td><td><div>63135</div></td></tr><tr><td style="font-weight:bold;vertical-align:top;">REQUEST_METHOD</td><td style="vertical-align:top;">:</td><td><div>GET</div></td></tr><tr><td style="font-weight:bold;vertical-align:top;">SCRIPT_NAME</td><td style="vertical-align:top;">:</td><td><div></div></td></tr><tr><td style="font-weight:bold;vertical-align:top;">SERVER_NAME</td><td style="vertical-align:top;">:</td><td><div>Amons-MacBook-Pro.local</div></td></tr><tr><td style="font-weight:bold;vertical-align:top;">SERVER_PORT</td><td style="vertical-align:top;">:</td><td><div>8000</div></td></tr><tr><td style="font-weight:bold;vertical-align:top;">SERVER_PROTOCOL</td><td style="vertical-align:top;">:</td><td><div>HTTP/1.1</div></td></tr><tr><td style="font-weight:bold;vertical-align:top;">SERVER_SOFTWARE</td><td style="vertical-align:top;">:</td><td><div>Rocket 1.2.6</div></td></tr><tr><td style="font-weight:bold;vertical-align:top;">app_folders</td><td style="vertical-align:top;">:</td><td><div>set([&#x27;/Users/amonmoce/Documents/MobileTechAndAppli/web2py/applications/admin/&#x27;, &#x27;/Users/amonmoce/Documents/MobileTechAndAppli/web2py/applications/ElectionsStats/&#x27;, &#x27;/Users/amonmoce/Documents/MobileTechAndAppli/web2py/applications/welcome/&#x27;])</div></td></tr><tr><td style="font-weight:bold;vertical-align:top;">applications_parent</td><td style="vertical-align:top;">:</td><td><div>/Users/amonmoce/Documents/MobileTechAndAppli/web2py</div></td></tr><tr><td style="font-weight:bold;vertical-align:top;">cmd_args</td><td style="vertical-align:top;">:</td><td><div><table></table></div></td></tr><tr><td style="font-weight:bold;vertical-align:top;">cmd_options</td><td style="vertical-align:top;">:</td><td><div>&lt;Values at 0x10be073f8: {&#x27;verbose&#x27;: False, &#x27;ip&#x27;: &#x27;127.0.0.1&#x27;, &#x27;debuglevel&#x27;: 30, &#x27;with_scheduler&#x27;: False, &#x27;ips&#x27;: [&#x27;192.168.1.3&#x27;, &#x27;fe80::7a31:c1ff:fecd:3cba%en0&#x27;], &#x27;shutdown_timeout&#x27;: 5, &#x27;taskbar&#x27;: False, &#x27;with_coverage&#x27;: False, &#x27;scheduler_groups&#x27;: None, &#x27;port&#x27;: 8000, &#x27;maxthreads&#x27;: None, &#x27;softcron&#x27;: False, &#x27;server_name&#x27;: &#x27;Amons-MacBook-Pro.local&#x27;, &#x27;bpython&#x27;: False, &#x27;nogui&#x27;: False, &#x27;pid_filename&#x27;: &#x27;httpserver.pid&#x27;, &#x27;print_errors&#x27;: False, &#x27;extcron&#x27;: False, &#x27;runcron&#x27;: False, &#x27;run_system_tests&#x27;: False, &#x27;test&#x27;: None, &#x27;folder&#x27;: &#x27;/Users/amonmoce/Documents/MobileTechAndAppli/web2py&#x27;, &#x27;config&#x27;: &#x27;&#x27;, &#x27;minthreads&#x27;: None, &#x27;shell&#x27;: None, &#x27;run&#x27;: &#x27;&#x27;, &#x27;log_filename&#x27;: &#x27;httpserver.log&#x27;, &#x27;profiler_dir&#x27;: None, &#x27;args&#x27;: [&#x27;&#x27;], &#x27;socket_timeout&#x27;: 5, &#x27;ssl_ca_certificate&#x27;: None, &#x27;scheduler&#x27;: None, &#x27;interfaces&#x27;: None, &#x27;ssl_private_key&#x27;: &#x27;&#x27;, &#x27;gae&#x27;: None, &#x27;password&#x27;: &#x27;&lt;ask&gt;&#x27;, &#x27;request_queue_size&#x27;: 5, &#x27;ssl_certificate&#x27;: &#x27;&#x27;, &#x27;cronjob&#x27;: False, &#x27;numthreads&#x27;: None, &#x27;quiet&#x27;: False, &#x27;import_models&#x27;: False, &#x27;timeout&#x27;: 10, &#x27;plain&#x27;: False, &#x27;nobanner&#x27;: False}&gt;</div></td></tr><tr><td style="font-weight:bold;vertical-align:top;">db_sessions</td><td style="vertical-align:top;">:</td><td><div>set([])</div></td></tr><tr><td style="font-weight:bold;vertical-align:top;">debugging</td><td style="vertical-align:top;">:</td><td><div>False</div></td></tr><tr><td style="font-weight:bold;vertical-align:top;">gluon_parent</td><td style="vertical-align:top;">:</td><td><div>/Users/amonmoce/Documents/MobileTechAndAppli/web2py</div></td></tr><tr><td style="font-weight:bold;vertical-align:top;">http_accept</td><td style="vertical-align:top;">:</td><td><div>text/html,application/xhtml+xml,application/xml;q=0.9,*/*;q=0.8</div></td></tr><tr><td style="font-weight:bold;vertical-align:top;">http_accept_encoding</td><td style="vertical-align:top;">:</td><td><div>gzip, deflate</div></td></tr><tr><td style="font-weight:bold;vertical-align:top;">http_accept_language</td><td style="vertical-align:top;">:</td><td><div>en-US,en;q=0.5</div></td></tr><tr><td style="font-weight:bold;vertical-align:top;">http_connection</td><td style="vertical-align:top;">:</td><td><div>keep-alive</div></td></tr><tr><td style="font-weight:bold;vertical-align:top;">http_cookie</td><td style="vertical-align:top;">:</td><td><div>session_id_welcome=127.0.0.1-2502e344-71c7-41dc-8bca-6797cc82709e; session_id_electionsstats=127.0.0.1-df3905b2-a9c7-4e42-8a7e-8a720059605c; session_id_admin=127.0.0.1-fd669924-4f7e-4f69-8607-c37ad4546bce</div></td></tr><tr><td style="font-weight:bold;vertical-align:top;">http_host</td><td style="vertical-align:top;">:</td><td><div>127.0.0.1:8000</div></td></tr><tr><td style="font-weight:bold;vertical-align:top;">http_user_agent</td><td style="vertical-align:top;">:</td><td><div>Mozilla/5.0 (Macintosh; Intel Mac OS X 10.11; rv:43.0) Gecko/20100101 Firefox/43.0</div></td></tr><tr><td style="font-weight:bold;vertical-align:top;">is_jython</td><td style="vertical-align:top;">:</td><td><div>False</div></td></tr><tr><td style="font-weight:bold;vertical-align:top;">is_pypy</td><td style="vertical-align:top;">:</td><td><div>False</div></td></tr><tr><td style="font-weight:bold;vertical-align:top;">is_source</td><td style="vertical-align:top;">:</td><td><div>True</div></td></tr><tr><td style="font-weight:bold;vertical-align:top;">local_hosts</td><td style="vertical-align:top;">:</td><td><div><table><tr><td><div>Amons-MacBook-Pro.local</div></td></tr><tr><td><div>::ffff:127.0.0.1</div></td></tr><tr><td><div>::1</div></td></tr><tr><td><div>fe80::7a31:c1ff:fecd:3cba%en0</div></td></tr><tr><td><div>amons-macbook-pro.local</div></td></tr><tr><td><div>192.168.1.3</div></td></tr><tr><td><div>127.0.0.1</div></td></tr></table></div></td></tr><tr><td style="font-weight:bold;vertical-align:top;">path_info</td><td style="vertical-align:top;">:</td><td><div>/ElectionsStats/default/getParliamentariesByCountry</div></td></tr><tr><td style="font-weight:bold;vertical-align:top;">query_string</td><td style="vertical-align:top;">:</td><td><div>country=226&amp;whichData=VT</div></td></tr><tr><td style="font-weight:bold;vertical-align:top;">remote_addr</td><td style="vertical-align:top;">:</td><td><div>127.0.0.1</div></td></tr><tr><td style="font-weight:bold;vertical-align:top;">remote_port</td><td style="vertical-align:top;">:</td><td><div>63135</div></td></tr><tr><td style="font-weight:bold;vertical-align:top;">request_method</td><td style="vertical-align:top;">:</td><td><div>GET</div></td></tr><tr><td style="font-weight:bold;vertical-align:top;">request_uri</td><td style="vertical-align:top;">:</td><td><div>/ElectionsStats/default/getParliamentariesByCountry?country=226&amp;whichData=VT</div></td></tr><tr><td style="font-weight:bold;vertical-align:top;">script_name</td><td style="vertical-align:top;">:</td><td><div></div></td></tr><tr><td style="font-weight:bold;vertical-align:top;">server_name</td><td style="vertical-align:top;">:</td><td><div>Amons-MacBook-Pro.local</div></td></tr><tr><td style="font-weight:bold;vertical-align:top;">server_port</td><td style="vertical-align:top;">:</td><td><div>8000</div></td></tr><tr><td style="font-weight:bold;vertical-align:top;">server_protocol</td><td style="vertical-align:top;">:</td><td><div>HTTP/1.1</div></td></tr><tr><td style="font-weight:bold;vertical-align:top;">server_software</td><td style="vertical-align:top;">:</td><td><div>Rocket 1.2.6</div></td></tr><tr><td style="font-weight:bold;vertical-align:top;">web2py_path</td><td style="vertical-align:top;">:</td><td><div>/Users/amonmoce/Documents/MobileTechAndAppli/web2py</div></td></tr><tr><td style="font-weight:bold;vertical-align:top;">web2py_version</td><td style="vertical-align:top;">:</td><td><div>2.13.4-stable+timestamp.2015.12.26.04.59.39</div></td></tr><tr><td style="font-weight:bold;vertical-align:top;">wsgi.errors</td><td style="vertical-align:top;">:</td><td><div>&lt;open file &#x27;&lt;stderr&gt;&#x27;, mode &#x27;w&#x27; at 0x10a31f1e0&gt;</div></td></tr><tr><td style="font-weight:bold;vertical-align:top;">wsgi.file_wrapper</td><td style="vertical-align:top;">:</td><td><div>&lt;class wsgiref.util.FileWrapper at 0x10b584f58&gt;</div></td></tr><tr><td style="font-weight:bold;vertical-align:top;">wsgi.input</td><td style="vertical-align:top;">:</td><td><div>&lt;socket._fileobject object at 0x1120fd350&gt;</div></td></tr><tr><td style="font-weight:bold;vertical-align:top;">wsgi.multiprocess</td><td style="vertical-align:top;">:</td><td><div>False</div></td></tr><tr><td style="font-weight:bold;vertical-align:top;">wsgi.multithread</td><td style="vertical-align:top;">:</td><td><div>True</div></td></tr><tr><td style="font-weight:bold;vertical-align:top;">wsgi.run_once</td><td style="vertical-align:top;">:</td><td><div>False</div></td></tr><tr><td style="font-weight:bold;vertical-align:top;">wsgi.url_scheme</td><td style="vertical-align:top;">:</td><td><div>http</div></td></tr><tr><td style="font-weight:bold;vertical-align:top;">wsgi.version</td><td style="vertical-align:top;">:</td><td><div><table><tr><td><div>1</div></td></tr><tr><td><div>0</div></td></tr></table></div></td></tr><tr><td style="font-weight:bold;vertical-align:top;">wsgi_errors</td><td style="vertical-align:top;">:</td><td><div>&lt;open file &#x27;&lt;stderr&gt;&#x27;, mode &#x27;w&#x27; at 0x10a31f1e0&gt;</div></td></tr><tr><td style="font-weight:bold;vertical-align:top;">wsgi_file_wrapper</td><td style="vertical-align:top;">:</td><td><div>&lt;class wsgiref.util.FileWrapper at 0x10b584f58&gt;</div></td></tr><tr><td style="font-weight:bold;vertical-align:top;">wsgi_input</td><td style="vertical-align:top;">:</td><td><div>&lt;socket._fileobject object at 0x1120fd350&gt;</div></td></tr><tr><td style="font-weight:bold;vertical-align:top;">wsgi_multiprocess</td><td style="vertical-align:top;">:</td><td><div>False</div></td></tr><tr><td style="font-weight:bold;vertical-align:top;">wsgi_multithread</td><td style="vertical-align:top;">:</td><td><div>True</div></td></tr><tr><td style="font-weight:bold;vertical-align:top;">wsgi_run_once</td><td style="vertical-align:top;">:</td><td><div>False</div></td></tr><tr><td style="font-weight:bold;vertical-align:top;">wsgi_url_scheme</td><td style="vertical-align:top;">:</td><td><div>http</div></td></tr><tr><td style="font-weight:bold;vertical-align:top;">wsgi_version</td><td style="vertical-align:top;">:</td><td><div><table><tr><td><div>1</div></td></tr><tr><td><div>0</div></td></tr></table></div></td></tr></table></div></td></tr><tr><td style="font-weight:bold;vertical-align:top;">extension</td><td style="vertical-align:top;">:</td><td><div>html</div></td></tr><tr><td style="font-weight:bold;vertical-align:top;">folder</td><td style="vertical-align:top;">:</td><td><div>/Users/amonmoce/Documents/MobileTechAndAppli/web2py/applications/ElectionsStats/</div></td></tr><tr><td style="font-weight:bold;vertical-align:top;">function</td><td style="vertical-align:top;">:</td><td><div>getParliamentariesByCountry</div></td></tr><tr><td style="font-weight:bold;vertical-align:top;">global_settings</td><td style="vertical-align:top;">:</td><td><div><table><tr><td style="font-weight:bold;vertical-align:top;">app_folders</td><td style="vertical-align:top;">:</td><td><div>set([&#x27;/Users/amonmoce/Documents/MobileTechAndAppli/web2py/applications/admin/&#x27;, &#x27;/Users/amonmoce/Documents/MobileTechAndAppli/web2py/applications/ElectionsStats/&#x27;, &#x27;/Users/amonmoce/Documents/MobileTechAndAppli/web2py/applications/welcome/&#x27;])</div></td></tr><tr><td style="font-weight:bold;vertical-align:top;">applications_parent</td><td style="vertical-align:top;">:</td><td><div>/Users/amonmoce/Documents/MobileTechAndAppli/web2py</div></td></tr><tr><td style="font-weight:bold;vertical-align:top;">cmd_args</td><td style="vertical-align:top;">:</td><td><div><table></table></div></td></tr><tr><td style="font-weight:bold;vertical-align:top;">cmd_options</td><td style="vertical-align:top;">:</td><td><div>&lt;Values at 0x10be073f8: {&#x27;verbose&#x27;: False, &#x27;ip&#x27;: &#x27;127.0.0.1&#x27;, &#x27;debuglevel&#x27;: 30, &#x27;with_scheduler&#x27;: False, &#x27;ips&#x27;: [&#x27;192.168.1.3&#x27;, &#x27;fe80::7a31:c1ff:fecd:3cba%en0&#x27;], &#x27;shutdown_timeout&#x27;: 5, &#x27;taskbar&#x27;: False, &#x27;with_coverage&#x27;: False, &#x27;scheduler_groups&#x27;: None, &#x27;port&#x27;: 8000, &#x27;maxthreads&#x27;: None, &#x27;softcron&#x27;: False, &#x27;server_name&#x27;: &#x27;Amons-MacBook-Pro.local&#x27;, &#x27;bpython&#x27;: False, &#x27;nogui&#x27;: False, &#x27;pid_filename&#x27;: &#x27;httpserver.pid&#x27;, &#x27;print_errors&#x27;: False, &#x27;extcron&#x27;: False, &#x27;runcron&#x27;: False, &#x27;run_system_tests&#x27;: False, &#x27;test&#x27;: None, &#x27;folder&#x27;: &#x27;/Users/amonmoce/Documents/MobileTechAndAppli/web2py&#x27;, &#x27;config&#x27;: &#x27;&#x27;, &#x27;minthreads&#x27;: None, &#x27;shell&#x27;: None, &#x27;run&#x27;: &#x27;&#x27;, &#x27;log_filename&#x27;: &#x27;httpserver.log&#x27;, &#x27;profiler_dir&#x27;: None, &#x27;args&#x27;: [&#x27;&#x27;], &#x27;socket_timeout&#x27;: 5, &#x27;ssl_ca_certificate&#x27;: None, &#x27;scheduler&#x27;: None, &#x27;interfaces&#x27;: None, &#x27;ssl_private_key&#x27;: &#x27;&#x27;, &#x27;gae&#x27;: None, &#x27;password&#x27;: &#x27;&lt;ask&gt;&#x27;, &#x27;request_queue_size&#x27;: 5, &#x27;ssl_certificate&#x27;: &#x27;&#x27;, &#x27;cronjob&#x27;: False, &#x27;numthreads&#x27;: None, &#x27;quiet&#x27;: False, &#x27;import_models&#x27;: False, &#x27;timeout&#x27;: 10, &#x27;plain&#x27;: False, &#x27;nobanner&#x27;: False}&gt;</div></td></tr><tr><td style="font-weight:bold;vertical-align:top;">db_sessions</td><td style="vertical-align:top;">:</td><td><div>set([])</div></td></tr><tr><td style="font-weight:bold;vertical-align:top;">debugging</td><td style="vertical-align:top;">:</td><td><div>False</div></td></tr><tr><td style="font-weight:bold;vertical-align:top;">gluon_parent</td><td style="vertical-align:top;">:</td><td><div>/Users/amonmoce/Documents/MobileTechAndAppli/web2py</div></td></tr><tr><td style="font-weight:bold;vertical-align:top;">is_jython</td><td style="vertical-align:top;">:</td><td><div>False</div></td></tr><tr><td style="font-weight:bold;vertical-align:top;">is_pypy</td><td style="vertical-align:top;">:</td><td><div>False</div></td></tr><tr><td style="font-weight:bold;vertical-align:top;">is_source</td><td style="vertical-align:top;">:</td><td><div>True</div></td></tr><tr><td style="font-weight:bold;vertical-align:top;">local_hosts</td><td style="vertical-align:top;">:</td><td><div><table><tr><td><div>Amons-MacBook-Pro.local</div></td></tr><tr><td><div>::ffff:127.0.0.1</div></td></tr><tr><td><div>::1</div></td></tr><tr><td><div>fe80::7a31:c1ff:fecd:3cba%en0</div></td></tr><tr><td><div>amons-macbook-pro.local</div></td></tr><tr><td><div>192.168.1.3</div></td></tr><tr><td><div>127.0.0.1</div></td></tr></table></div></td></tr><tr><td style="font-weight:bold;vertical-align:top;">web2py_version</td><td style="vertical-align:top;">:</td><td><div>2.13.4-stable+timestamp.2015.12.26.04.59.39</div></td></tr></table></div></td></tr><tr><td style="font-weight:bold;vertical-align:top;">is_https</td><td style="vertical-align:top;">:</td><td><div>False</div></td></tr><tr><td style="font-weight:bold;vertical-align:top;">is_local</td><td style="vertical-align:top;">:</td><td><div>True</div></td></tr><tr><td style="font-weight:bold;vertical-align:top;">is_restful</td><td style="vertical-align:top;">:</td><td><div>False</div></td></tr><tr><td style="font-weight:bold;vertical-align:top;">is_scheduler</td><td style="vertical-align:top;">:</td><td><div>False</div></td></tr><tr><td style="font-weight:bold;vertical-align:top;">is_shell</td><td style="vertical-align:top;">:</td><td><div>False</div></td></tr><tr><td style="font-weight:bold;vertical-align:top;">now</td><td style="vertical-align:top;">:</td><td><div>datetime.datetime(2016, 1, 5, 20, 30, 49, 951689)</div></td></tr><tr><td style="font-weight:bold;vertical-align:top;">raw_args</td><td style="vertical-align:top;">:</td><td><div></div></td></tr><tr><td style="font-weight:bold;vertical-align:top;">raw_extension</td><td style="vertical-align:top;">:</td><td><div>None</div></td></tr><tr><td style="font-weight:bold;vertical-align:top;">url</td><td style="vertical-align:top;">:</td><td><div>/ElectionsStats/default/getParliamentariesByCountry</div></td></tr><tr><td style="font-weight:bold;vertical-align:top;">utcnow</td><td style="vertical-align:top;">:</td><td><div>datetime.datetime(2016, 1, 5, 12, 30, 49, 951701)</div></td></tr><tr><td style="font-weight:bold;vertical-align:top;">wsgi</td><td style="vertical-align:top;">:</td><td><div>&lt;gluon.main.LazyWSGI object at 0x111c301d0&gt;</div></td></tr></table></div>'
tRp66
sS'frames'
p67
(lp68
(dp69
S'file'
p70
S'/Users/amonmoce/Documents/MobileTechAndAppli/web2py/gluon/restricted.py'
p71
sS'dump'
p72
(dp73
S'environment'
p74
S"{'A': <class 'gluon.html.A'>, 'ANY_OF': <class 'gluon.validators.ANY_OF'>, 'ASSIGNJS': <function ASSIGNJS>, 'AppConfig': <function AppConfig>, 'Auth': <class 'gluon.tools.Auth'>, 'B': <class 'gluon.html.B'>, 'BEAUTIFY': <class 'gluon.html.BEAUTIFY'>, 'BODY': <class 'gluon.html.BODY'>, 'BR': <class 'gluon.html.BR'>, 'BUTTON': <class 'gluon.html.BUTTON'>, ...}"
p75
sS'ccode'
p76
S'<code object <module> at 0x1126041b0, file "/Use.../ElectionsStats/controllers/default.py", line 10>'
p77
ssS'lnum'
p78
I227
sS'lines'
p79
(dp80
I224
S'            ccode = code'
p81
sI225
S'        else:'
p82
sI226
S'            ccode = compile2(code, layer)'
p83
sI227
S'        exec ccode in environment'
p84
sI228
S'    except HTTP:'
p85
sI229
S'        raise'
p86
sI230
S'    except RestrictedError:'
p87
sI231
S'        # do not encapsulate (obfuscate) the original RestrictedError'
p88
sI222
S'    try:'
p89
sI223
S'        if isinstance(code, types.CodeType):'
p90
ssS'call'
p91
S"(code='# -*- coding: utf-8 -*-\\n# this file is released ...rs=response._caller(getParliamentariesByCountry)\\n', environment={'A': <class 'gluon.html.A'>, 'ANY_OF': <class 'gluon.validators.ANY_OF'>, 'ASSIGNJS': <function ASSIGNJS>, 'AppConfig': <function AppConfig>, 'Auth': <class 'gluon.tools.Auth'>, 'B': <class 'gluon.html.B'>, 'BEAUTIFY': <class 'gluon.html.BEAUTIFY'>, 'BODY': <class 'gluon.html.BODY'>, 'BR': <class 'gluon.html.BR'>, 'BUTTON': <class 'gluon.html.BUTTON'>, ...}, layer='/Users/amonmoce/Documents/MobileTechAndAppli/web...pplications/ElectionsStats/controllers/default.py')"
p92
sS'func'
p93
S'restricted'
p94
sa(dp95
g70
S'/Users/amonmoce/Documents/MobileTechAndAppli/web2py/applications/ElectionsStats/controllers/default.py'
p96
sg72
(dp97
sg78
I154
sg79
(dp98
I143
S"    response.headers['Content-Type'] = 'text/html'"
p99
sI144
S'    results = []'
p100
sI145
S'    for year in parliamentaries:'
p101
sI146
S'        results.append("Year: "+year +", Data: "+ parliamentaries[year][specificData])'
p102
sI147
S'    results.append("<a href=\'#\'>Go back</a>")'
p103
sI148
S"    return '<br>'.join(results)"
p104
sI149
S''
sI150
S''
sI151
S'def getParliamentariesByYear():'
p105
sI152
S'    pass'
p106
ssg91
S'()'
p107
sg93
S'<module>'
p108
sa(dp109
g70
S'/Users/amonmoce/Documents/MobileTechAndAppli/web2py/gluon/globals.py'
p110
sg72
(dp111
S'self'
p112
S'undefined'
p113
sS'f'
S'<function getParliamentariesByCountry>'
p114
ssg78
I412
sg79
(dp115
I416
S"        self.generic_patterns = ['*']"
p116
sI407
S"        self.flash = ''            # used by the default view layout"
p117
sI408
S'        self.meta = Storage()      # used by web2py_ajax.html'
p118
sI409
S'        self.menu = []             # used by the default view layout'
p119
sI410
S'        self.files = []            # used by web2py_ajax.html'
p120
sI411
S'        self._vars = None'
p121
sI412
S'        self._caller = lambda f: f()'
p122
sI413
S'        self._view_environment = None'
p123
sI414
S'        self._custom_commit = None'
p124
sI415
S'        self._custom_rollback = None'
p125
ssg91
S'(f=<function getParliamentariesByCountry>)'
p126
sg93
S'<lambda>'
p127
sa(dp128
g70
S'/Users/amonmoce/Documents/MobileTechAndAppli/web2py/applications/ElectionsStats/controllers/default.py'
p129
sg72
(dp130
S'presidentials'
p131
g113
sS'parliamentaries'
p132
g113
sS'countryValue'
p133
S"'226'"
p134
sS'builtinstr'
p135
S"<type 'str'>"
p136
sS'global scrapeData'
p137
S'<function scrapeData>'
p138
sS'specificData'
p139
g113
sS'whichData'
p140
S"'VT'"
p141
ssg78
I142
sg79
(dp142
I137
S''
sI138
S''
sI139
S'def getParliamentariesByCountry():'
p143
sI140
S"    countryValue = request.vars['country']"
p144
sI141
S"    whichData = request.vars['whichData']"
p145
sI142
S'    presidentials, parliamentaries, specificData = scrapeData(str(countryValue), str(whichData))'
p146
sI143
S"    response.headers['Content-Type'] = 'text/html'"
p147
sI144
S'    results = []'
p148
sI145
S'    for year in parliamentaries:'
p149
sI146
S'        results.append("Year: "+year +", Data: "+ parliamentaries[year][specificData])'
p150
ssg91
S'()'
p151
sg93
S'getParliamentariesByCountry'
p152
sa(dp153
g70
S'/Users/amonmoce/Documents/MobileTechAndAppli/web2py/applications/ElectionsStats/controllers/default.py'
p154
sg72
(dp155
S'global encode_data'
p156
S'<function encode_data>'
p157
sS'numbers'
p158
S"[[u'74.\\u200c70', '13,514,199', '18,086,455', u'74.\\u200c22', '18,115,247', '23,230,506'], [u'58.\\u200c50', '10,050,619', '17,179,656', u'56.\\u200c80', '17,693,301', '22,858,872', u'1.\\u200c60'], [u'59.\\u200c16', '9,796,299', '16,559,254', u'57.\\u200c90', '16,919,243', '22,605,000', u'0.\\u200c81'], [u'66.\\u200c16', '10,468,990', '15,822,684', u'63.\\u200c14', '16,580,286', '22,335,805', u'1.\\u200c30'], [u'68.\\u200c09', '10,188,302', '14,961,930', u'64.\\u200c56', '15,781,923', '21,834,438', u'1.\\u200c50'], [u'76.\\u200c21', '10,769,224', '14,130,084', u'75.\\u200c10', '14,340,580', '21,311,000', u'3.\\u200c20'], [u'67.\\u200c65', '9,574,388', '14,153,424', u'67.\\u200c08', '14,273,013', '21,258,000', u'1.\\u200c40'], [u'72.\\u200c02', '9,666,020', '13,421,170', u'71.\\u200c20', '13,576,697', '20,340,000', u'1.\\u200c80'], [u'68.\\u200c32', '8,938,622', '13,083,119', u'67.\\u200c01', '13,338,634', '20,491,000', '2'], [u'74.\\u200c38', '13,452,016', '18,086,455', u'74.\\u200c26', '18,115,247', '23,230,506', u'0.\\u200c73'], [u'76.\\u200c33', '13,221,609', '17,321,622', u'74.\\u200c73', '17,693,301', '22,858,872', u'0.\\u200c90'], [u'80.\\u200c28', '13,251,719', '16,507,179', u'78.\\u200c32', '16,919,243', '22,605,000', u'2.\\u200c60'], [u'82.\\u200c69', '12,786,671', '15,462,625', u'77.\\u200c58', '16,482,816', '22,092,387', '1'], [u'76.\\u200c04', '10,883,279', '14,313,288', u'76.\\u200c89', '14,154,000', '21,000,000', u'1.\\u200c10']]"
p159
ssg78
I103
sg79
(dp160
I98
S'            year_index =+1'
p161
sI99
S'            line = []'
p162
sI100
S'        else:'
p163
sI101
S'             line.append(data[i])'
p164
sI102
S'    data = {}'
p165
sI103
S'    numbers = encode_data(numbers)'
p166
sI104
S'    for i in range(0, len(data_years)):'
p167
sI105
S'        if i <= parliamentary_years_size:'
p168
sI106
S'            parliamentaries[data_years[i]] = numbers[i]'
p169
sI107
S'        else:'
p170
ssg91
S"(countryValue='226', whichData='VT')"
p171
sg93
S'scrapeData'
p172
sa(dp173
g70
S'/Users/amonmoce/Documents/MobileTechAndAppli/web2py/applications/ElectionsStats/controllers/default.py'
p174
sg72
(dp175
S'new_array'
p176
S'[]'
p177
sS'new_array.append'
p178
S'<built-in method append of list object>'
p179
sS'element.encode'
p180
S'<built-in method encode of lxml.etree._ElementUnicodeResult object>'
p181
sS'element'
p182
S"u'74.\\u200c70'"
p183
ssg78
I68
sg79
(dp184
I64
S'    encode_numbers = []'
p185
sI65
S'    for array in numbers:'
p186
sI66
S'        new_array = []'
p187
sI67
S'        for element in array:'
p188
sI68
S"            new_array.append(element.encode('ascii'))"
p189
sI69
S'        encode_numbers.append(new_array)'
p190
sI70
S'    print encode_numbers'
p191
sI71
S'    return encode_numbers'
p192
sI72
S''
sI63
S'def encode_data(numbers):'
p193
ssg91
S"(numbers=[[u'74.\\u200c70', '13,514,199', '18,086,455', u'74.\\u200c22', '18,115,247', '23,230,506'], [u'58.\\u200c50', '10,050,619', '17,179,656', u'56.\\u200c80', '17,693,301', '22,858,872', u'1.\\u200c60'], [u'59.\\u200c16', '9,796,299', '16,559,254', u'57.\\u200c90', '16,919,243', '22,605,000', u'0.\\u200c81'], [u'66.\\u200c16', '10,468,990', '15,822,684', u'63.\\u200c14', '16,580,286', '22,335,805', u'1.\\u200c30'], [u'68.\\u200c09', '10,188,302', '14,961,930', u'64.\\u200c56', '15,781,923', '21,834,438', u'1.\\u200c50'], [u'76.\\u200c21', '10,769,224', '14,130,084', u'75.\\u200c10', '14,340,580', '21,311,000', u'3.\\u200c20'], [u'67.\\u200c65', '9,574,388', '14,153,424', u'67.\\u200c08', '14,273,013', '21,258,000', u'1.\\u200c40'], [u'72.\\u200c02', '9,666,020', '13,421,170', u'71.\\u200c20', '13,576,697', '20,340,000', u'1.\\u200c80'], [u'68.\\u200c32', '8,938,622', '13,083,119', u'67.\\u200c01', '13,338,634', '20,491,000', '2'], [u'74.\\u200c38', '13,452,016', '18,086,455', u'74.\\u200c26', '18,115,247', '23,230,506', u'0.\\u200c73'], [u'76.\\u200c33', '13,221,609', '17,321,622', u'74.\\u200c73', '17,693,301', '22,858,872', u'0.\\u200c90'], [u'80.\\u200c28', '13,251,719', '16,507,179', u'78.\\u200c32', '16,919,243', '22,605,000', u'2.\\u200c60'], [u'82.\\u200c69', '12,786,671', '15,462,625', u'77.\\u200c58', '16,482,816', '22,092,387', '1'], [u'76.\\u200c04', '10,883,279', '14,313,288', u'76.\\u200c89', '14,154,000', '21,000,000', u'1.\\u200c10']])"
p194
sg93
S'encode_data'
p195
sasS'pyver'
p196
S'Python 2.7.9: /usr/local/opt/python/bin/python2.7 (prefix: /usr/local/Cellar/python/2.7.9/Frameworks/Python.framework/Versions/2.7)'
p197
sS'session'
p198
g65
(S's\x1a\x00\x00\x00<div><table></table></div>'
tRp199
sS'etype'
p200
S"<type 'exceptions.UnicodeEncodeError'>"
p201
sS'date'
p202
S'Tue Jan  5 20:30:50 2016'
p203
sS'response'
p204
g65
(S's(?\x00\x00<div><table><tr><td style="font-weight:bold;vertical-align:top;">body</td><td style="vertical-align:top;">:</td><td><div>&lt;cStringIO.StringO object at 0x10ffe84c8&gt;</div></td></tr><tr><td style="font-weight:bold;vertical-align:top;">cookies</td><td style="vertical-align:top;">:</td><td><div><table><tr><td style="font-weight:bold;vertical-align:top;">session_id_electionsstats</td><td style="vertical-align:top;">:</td><td><div>127.0.0.1-ad97ad64-0618-4481-b5e7-05b3debf1df3<table><tr><td style="font-weight:bold;vertical-align:top;">comment</td><td style="vertical-align:top;">:</td><td><div></div></td></tr><tr><td style="font-weight:bold;vertical-align:top;">domain</td><td style="vertical-align:top;">:</td><td><div></div></td></tr><tr><td style="font-weight:bold;vertical-align:top;">expires</td><td style="vertical-align:top;">:</td><td><div></div></td></tr><tr><td style="font-weight:bold;vertical-align:top;">httponly</td><td style="vertical-align:top;">:</td><td><div></div></td></tr><tr><td style="font-weight:bold;vertical-align:top;">max-age</td><td style="vertical-align:top;">:</td><td><div></div></td></tr><tr><td style="font-weight:bold;vertical-align:top;">path</td><td style="vertical-align:top;">:</td><td><div>/</div></td></tr><tr><td style="font-weight:bold;vertical-align:top;">secure</td><td style="vertical-align:top;">:</td><td><div></div></td></tr><tr><td style="font-weight:bold;vertical-align:top;">version</td><td style="vertical-align:top;">:</td><td><div></div></td></tr></table></div></td></tr></table></div></td></tr><tr><td style="font-weight:bold;vertical-align:top;">delimiters</td><td style="vertical-align:top;">:</td><td><div><table><tr><td><div>{{</div></td></tr><tr><td><div>}}</div></td></tr></table></div></td></tr><tr><td style="font-weight:bold;vertical-align:top;">files</td><td style="vertical-align:top;">:</td><td><div><table></table></div></td></tr><tr><td style="font-weight:bold;vertical-align:top;">flash</td><td style="vertical-align:top;">:</td><td><div></div></td></tr><tr><td style="font-weight:bold;vertical-align:top;">form_label_separator</td><td style="vertical-align:top;">:</td><td><div></div></td></tr><tr><td style="font-weight:bold;vertical-align:top;">formstyle</td><td style="vertical-align:top;">:</td><td><div>bootstrap3_inline</div></td></tr><tr><td style="font-weight:bold;vertical-align:top;">generic_patterns</td><td style="vertical-align:top;">:</td><td><div><table><tr><td><div>*</div></td></tr></table></div></td></tr><tr><td style="font-weight:bold;vertical-align:top;">google_analytics_id</td><td style="vertical-align:top;">:</td><td><div>None</div></td></tr><tr><td style="font-weight:bold;vertical-align:top;">headers</td><td style="vertical-align:top;">:</td><td><div><table><tr><td style="font-weight:bold;vertical-align:top;">X-Powered-By</td><td style="vertical-align:top;">:</td><td><div>web2py</div></td></tr></table></div></td></tr><tr><td style="font-weight:bold;vertical-align:top;">logo</td><td style="vertical-align:top;">:</td><td><div><a class="navbar-brand" href="http://www.web2py.com/" id="web2py-logo"><b>web<span>2</span>py</b>&trade;&nbsp;</a></div></td></tr><tr><td style="font-weight:bold;vertical-align:top;">menu</td><td style="vertical-align:top;">:</td><td><div><table><tr><td><div><table><tr><td><div>Home</div></td></tr><tr><td><div>False</div></td></tr><tr><td><div>/ElectionsStats/default/index</div></td></tr><tr><td><div><table></table></div></td></tr></table></div></td></tr><tr><td><div><table><tr><td><div>My Sites</div></td></tr><tr><td><div>False</div></td></tr><tr><td><div>/admin/default/site</div></td></tr></table></div></td></tr><tr><td><div><table><tr><td><div>This App</div></td></tr><tr><td><div>False</div></td></tr><tr><td><div>#</div></td></tr><tr><td><div><table><tr><td><div><table><tr><td><div>Design</div></td></tr><tr><td><div>False</div></td></tr><tr><td><div>/admin/default/design/ElectionsStats</div></td></tr></table></div></td></tr><tr><td><div><li class="divider"></li></div></td></tr><tr><td><div><table><tr><td><div>Controller</div></td></tr><tr><td><div>False</div></td></tr><tr><td><div>/admin/default/edit/ElectionsStats/controllers/default.py</div></td></tr></table></div></td></tr><tr><td><div><table><tr><td><div>View</div></td></tr><tr><td><div>False</div></td></tr><tr><td><div>/admin/default/edit/ElectionsStats/views/default/getParliamentariesByCountry.html</div></td></tr></table></div></td></tr><tr><td><div><table><tr><td><div>DB Model</div></td></tr><tr><td><div>False</div></td></tr><tr><td><div>/admin/default/edit/ElectionsStats/models/db.py</div></td></tr></table></div></td></tr><tr><td><div><table><tr><td><div>Menu Model</div></td></tr><tr><td><div>False</div></td></tr><tr><td><div>/admin/default/edit/ElectionsStats/models/menu.py</div></td></tr></table></div></td></tr><tr><td><div><table><tr><td><div>Config.ini</div></td></tr><tr><td><div>False</div></td></tr><tr><td><div>/admin/default/edit/ElectionsStats/private/appconfig.ini</div></td></tr></table></div></td></tr><tr><td><div><table><tr><td><div>Layout</div></td></tr><tr><td><div>False</div></td></tr><tr><td><div>/admin/default/edit/ElectionsStats/views/layout.html</div></td></tr></table></div></td></tr><tr><td><div><table><tr><td><div>Stylesheet</div></td></tr><tr><td><div>False</div></td></tr><tr><td><div>/admin/default/edit/ElectionsStats/static/css/web2py-bootstrap3.css</div></td></tr></table></div></td></tr><tr><td><div><table><tr><td><div>Database</div></td></tr><tr><td><div>False</div></td></tr><tr><td><div>/ElectionsStats/appadmin/index</div></td></tr></table></div></td></tr><tr><td><div><table><tr><td><div>Errors</div></td></tr><tr><td><div>False</div></td></tr><tr><td><div>/admin/default/errors/ElectionsStats</div></td></tr></table></div></td></tr><tr><td><div><table><tr><td><div>About</div></td></tr><tr><td><div>False</div></td></tr><tr><td><div>/admin/default/about/ElectionsStats</div></td></tr></table></div></td></tr></table></div></td></tr></table></div></td></tr><tr><td><div><table><tr><td><div>web2py.com</div></td></tr><tr><td><div>False</div></td></tr><tr><td><div>#</div></td></tr><tr><td><div><table><tr><td><div><table><tr><td><div>Download</div></td></tr><tr><td><div>False</div></td></tr><tr><td><div>http://www.web2py.com/examples/default/download</div></td></tr></table></div></td></tr><tr><td><div><table><tr><td><div>Support</div></td></tr><tr><td><div>False</div></td></tr><tr><td><div>http://www.web2py.com/examples/default/support</div></td></tr></table></div></td></tr><tr><td><div><table><tr><td><div>Demo</div></td></tr><tr><td><div>False</div></td></tr><tr><td><div>http://web2py.com/demo_admin</div></td></tr></table></div></td></tr><tr><td><div><table><tr><td><div>Quick Examples</div></td></tr><tr><td><div>False</div></td></tr><tr><td><div>http://web2py.com/examples/default/examples</div></td></tr></table></div></td></tr><tr><td><div><table><tr><td><div>FAQ</div></td></tr><tr><td><div>False</div></td></tr><tr><td><div>http://web2py.com/AlterEgo</div></td></tr></table></div></td></tr><tr><td><div><table><tr><td><div>Videos</div></td></tr><tr><td><div>False</div></td></tr><tr><td><div>http://www.web2py.com/examples/default/videos/</div></td></tr></table></div></td></tr><tr><td><div><table><tr><td><div>Free Applications</div></td></tr><tr><td><div>False</div></td></tr><tr><td><div>http://web2py.com/appliances</div></td></tr></table></div></td></tr><tr><td><div><table><tr><td><div>Plugins</div></td></tr><tr><td><div>False</div></td></tr><tr><td><div>http://web2py.com/plugins</div></td></tr></table></div></td></tr><tr><td><div><table><tr><td><div>Recipes</div></td></tr><tr><td><div>False</div></td></tr><tr><td><div>http://web2pyslices.com/</div></td></tr></table></div></td></tr></table></div></td></tr></table></div></td></tr><tr><td><div><table><tr><td><div>Documentation</div></td></tr><tr><td><div>False</div></td></tr><tr><td><div>#</div></td></tr><tr><td><div><table><tr><td><div><table><tr><td><div>Online book</div></td></tr><tr><td><div>False</div></td></tr><tr><td><div>http://www.web2py.com/book</div></td></tr></table></div></td></tr><tr><td><div><li class="divider"></li></div></td></tr><tr><td><div><table><tr><td><div>Preface</div></td></tr><tr><td><div>False</div></td></tr><tr><td><div>http://www.web2py.com/book/default/chapter/00</div></td></tr></table></div></td></tr><tr><td><div><table><tr><td><div>Introduction</div></td></tr><tr><td><div>False</div></td></tr><tr><td><div>http://www.web2py.com/book/default/chapter/01</div></td></tr></table></div></td></tr><tr><td><div><table><tr><td><div>Python</div></td></tr><tr><td><div>False</div></td></tr><tr><td><div>http://www.web2py.com/book/default/chapter/02</div></td></tr></table></div></td></tr><tr><td><div><table><tr><td><div>Overview</div></td></tr><tr><td><div>False</div></td></tr><tr><td><div>http://www.web2py.com/book/default/chapter/03</div></td></tr></table></div></td></tr><tr><td><div><table><tr><td><div>The Core</div></td></tr><tr><td><div>False</div></td></tr><tr><td><div>http://www.web2py.com/book/default/chapter/04</div></td></tr></table></div></td></tr><tr><td><div><table><tr><td><div>The Views</div></td></tr><tr><td><div>False</div></td></tr><tr><td><div>http://www.web2py.com/book/default/chapter/05</div></td></tr></table></div></td></tr><tr><td><div><table><tr><td><div>Database</div></td></tr><tr><td><div>False</div></td></tr><tr><td><div>http://www.web2py.com/book/default/chapter/06</div></td></tr></table></div></td></tr><tr><td><div><table><tr><td><div>Forms and Validators</div></td></tr><tr><td><div>False</div></td></tr><tr><td><div>http://www.web2py.com/book/default/chapter/07</div></td></tr></table></div></td></tr><tr><td><div><table><tr><td><div>Email and SMS</div></td></tr><tr><td><div>False</div></td></tr><tr><td><div>http://www.web2py.com/book/default/chapter/08</div></td></tr></table></div></td></tr><tr><td><div><table><tr><td><div>Access Control</div></td></tr><tr><td><div>False</div></td></tr><tr><td><div>http://www.web2py.com/book/default/chapter/09</div></td></tr></table></div></td></tr><tr><td><div><table><tr><td><div>Services</div></td></tr><tr><td><div>False</div></td></tr><tr><td><div>http://www.web2py.com/book/default/chapter/10</div></td></tr></table></div></td></tr><tr><td><div><table><tr><td><div>Ajax Recipes</div></td></tr><tr><td><div>False</div></td></tr><tr><td><div>http://www.web2py.com/book/default/chapter/11</div></td></tr></table></div></td></tr><tr><td><div><table><tr><td><div>Components and Plugins</div></td></tr><tr><td><div>False</div></td></tr><tr><td><div>http://www.web2py.com/book/default/chapter/12</div></td></tr></table></div></td></tr><tr><td><div><table><tr><td><div>Deployment Recipes</div></td></tr><tr><td><div>False</div></td></tr><tr><td><div>http://www.web2py.com/book/default/chapter/13</div></td></tr></table></div></td></tr><tr><td><div><table><tr><td><div>Other Recipes</div></td></tr><tr><td><div>False</div></td></tr><tr><td><div>http://www.web2py.com/book/default/chapter/14</div></td></tr></table></div></td></tr><tr><td><div><table><tr><td><div>Helping web2py</div></td></tr><tr><td><div>False</div></td></tr><tr><td><div>http://www.web2py.com/book/default/chapter/15</div></td></tr></table></div></td></tr><tr><td><div><table><tr><td><div>Buy web2py\'s book</div></td></tr><tr><td><div>False</div></td></tr><tr><td><div>http://stores.lulu.com/web2py</div></td></tr></table></div></td></tr></table></div></td></tr></table></div></td></tr><tr><td><div><table><tr><td><div>Community</div></td></tr><tr><td><div>False</div></td></tr><tr><td><div>None</div></td></tr><tr><td><div><table><tr><td><div><table><tr><td><div>Groups</div></td></tr><tr><td><div>False</div></td></tr><tr><td><div>http://www.web2py.com/examples/default/usergroups</div></td></tr></table></div></td></tr><tr><td><div><table><tr><td><div>Twitter</div></td></tr><tr><td><div>False</div></td></tr><tr><td><div>http://twitter.com/web2py</div></td></tr></table></div></td></tr><tr><td><div><table><tr><td><div>Live Chat</div></td></tr><tr><td><div>False</div></td></tr><tr><td><div>http://webchat.freenode.net/?channels=web2py</div></td></tr></table></div></td></tr></table></div></td></tr></table></div></td></tr></table></div></td></tr><tr><td style="font-weight:bold;vertical-align:top;">meta</td><td style="vertical-align:top;">:</td><td><div><table><tr><td style="font-weight:bold;vertical-align:top;">author</td><td style="vertical-align:top;">:</td><td><div>Your Name &lt;you@example.com&gt;</div></td></tr><tr><td style="font-weight:bold;vertical-align:top;">description</td><td style="vertical-align:top;">:</td><td><div>a cool new app</div></td></tr><tr><td style="font-weight:bold;vertical-align:top;">generator</td><td style="vertical-align:top;">:</td><td><div>Web2py Web Framework</div></td></tr><tr><td style="font-weight:bold;vertical-align:top;">keywords</td><td style="vertical-align:top;">:</td><td><div>web2py, python, framework</div></td></tr></table></div></td></tr><tr><td style="font-weight:bold;vertical-align:top;">models_to_run</td><td style="vertical-align:top;">:</td><td><div><table><tr><td><div>^\\w+\\.py$</div></td></tr><tr><td><div>^default/\\w+\\.py$</div></td></tr><tr><td><div>^default/getParliamentariesByCountry/\\w+\\.py$</div></td></tr></table></div></td></tr><tr><td style="font-weight:bold;vertical-align:top;">postprocessing</td><td style="vertical-align:top;">:</td><td><div><table></table></div></td></tr><tr><td style="font-weight:bold;vertical-align:top;">session_client</td><td style="vertical-align:top;">:</td><td><div>127.0.0.1</div></td></tr><tr><td style="font-weight:bold;vertical-align:top;">session_cookie_compression_level</td><td style="vertical-align:top;">:</td><td><div>None</div></td></tr><tr><td style="font-weight:bold;vertical-align:top;">session_cookie_expires</td><td style="vertical-align:top;">:</td><td><div>None</div></td></tr><tr><td style="font-weight:bold;vertical-align:top;">session_cookie_key</td><td style="vertical-align:top;">:</td><td><div>None</div></td></tr><tr><td style="font-weight:bold;vertical-align:top;">session_data_name</td><td style="vertical-align:top;">:</td><td><div>session_data_electionsstats</div></td></tr><tr><td style="font-weight:bold;vertical-align:top;">session_file</td><td style="vertical-align:top;">:</td><td><div>None</div></td></tr><tr><td style="font-weight:bold;vertical-align:top;">session_filename</td><td style="vertical-align:top;">:</td><td><div>/Users/amonmoce/Documents/MobileTechAndAppli/web2py/applications/ElectionsStats/sessions/127.0.0.1-ad97ad64-0618-4481-b5e7-05b3debf1df3</div></td></tr><tr><td style="font-weight:bold;vertical-align:top;">session_hash</td><td style="vertical-align:top;">:</td><td><div>c0762cbf4baf7f9af97c051e7fcb8083</div></td></tr><tr><td style="font-weight:bold;vertical-align:top;">session_id</td><td style="vertical-align:top;">:</td><td><div>127.0.0.1-ad97ad64-0618-4481-b5e7-05b3debf1df3</div></td></tr><tr><td style="font-weight:bold;vertical-align:top;">session_id_name</td><td style="vertical-align:top;">:</td><td><div>session_id_electionsstats</div></td></tr><tr><td style="font-weight:bold;vertical-align:top;">session_masterapp</td><td style="vertical-align:top;">:</td><td><div>ElectionsStats</div></td></tr><tr><td style="font-weight:bold;vertical-align:top;">session_new</td><td style="vertical-align:top;">:</td><td><div>True</div></td></tr><tr><td style="font-weight:bold;vertical-align:top;">session_storage_type</td><td style="vertical-align:top;">:</td><td><div>file</div></td></tr><tr><td style="font-weight:bold;vertical-align:top;">status</td><td style="vertical-align:top;">:</td><td><div>200</div></td></tr><tr><td style="font-weight:bold;vertical-align:top;">subtitle</td><td style="vertical-align:top;">:</td><td><div></div></td></tr><tr><td style="font-weight:bold;vertical-align:top;">title</td><td style="vertical-align:top;">:</td><td><div>Electionsstats</div></td></tr><tr><td style="font-weight:bold;vertical-align:top;">view</td><td style="vertical-align:top;">:</td><td><div>default/getParliamentariesByCountry.html</div></td></tr></table></div>'
tRp205
sS'locals'
p206
(dp207
S'new_array'
p208
S'[]'
p209
sS'array'
p210
S"[u'74.\\u200c70', '13,514,199', '18,086,455', u'74.\\u200c22', '18,115,247', '23,230,506']"
p211
sS'encode_numbers'
p212
S'[]'
p213
sS'numbers'
p214
S"[[u'74.\\u200c70', '13,514,199', '18,086,455', u'74.\\u200c22', '18,115,247', '23,230,506'], [u'58.\\u200c50', '10,050,619', '17,179,656', u'56.\\u200c80', '17,693,301', '22,858,872', u'1.\\u200c60'], [u'59.\\u200c16', '9,796,299', '16,559,254', u'57.\\u200c90', '16,919,243', '22,605,000', u'0.\\u200c81'], [u'66.\\u200c16', '10,468,990', '15,822,684', u'63.\\u200c14', '16,580,286', '22,335,805', u'1.\\u200c30'], [u'68.\\u200c09', '10,188,302', '14,961,930', u'64.\\u200c56', '15,781,923', '21,834,438', u'1.\\u200c50'], [u'76.\\u200c21', '10,769,224', '14,130,084', u'75.\\u200c10', '14,340,580', '21,311,000', u'3.\\u200c20'], [u'67.\\u200c65', '9,574,388', '14,153,424', u'67.\\u200c08', '14,273,013', '21,258,000', u'1.\\u200c40'], [u'72.\\u200c02', '9,666,020', '13,421,170', u'71.\\u200c20', '13,576,697', '20,340,000', u'1.\\u200c80'], [u'68.\\u200c32', '8,938,622', '13,083,119', u'67.\\u200c01', '13,338,634', '20,491,000', '2'], [u'74.\\u200c38', '13,452,016', '18,086,455', u'74.\\u200c26', '18,115,247', '23,230,506', u'0.\\u200c73'], [u'76.\\u200c33', '13,221,609', '17,321,622', u'74.\\u200c73', '17,693,301', '22,858,872', u'0.\\u200c90'], [u'80.\\u200c28', '13,251,719', '16,507,179', u'78.\\u200c32', '16,919,243', '22,605,000', u'2.\\u200c60'], [u'82.\\u200c69', '12,786,671', '15,462,625', u'77.\\u200c58', '16,482,816', '22,092,387', '1'], [u'76.\\u200c04', '10,883,279', '14,313,288', u'76.\\u200c89', '14,154,000', '21,000,000', u'1.\\u200c10']]"
p215
sS'element'
p216
S"u'74.\\u200c70'"
p217
sssS'traceback'
p218
S'Traceback (most recent call last):\n  File "/Users/amonmoce/Documents/MobileTechAndAppli/web2py/gluon/restricted.py", line 227, in restricted\n    exec ccode in environment\n  File "/Users/amonmoce/Documents/MobileTechAndAppli/web2py/applications/ElectionsStats/controllers/default.py", line 154, in <module>\n  File "/Users/amonmoce/Documents/MobileTechAndAppli/web2py/gluon/globals.py", line 412, in <lambda>\n    self._caller = lambda f: f()\n  File "/Users/amonmoce/Documents/MobileTechAndAppli/web2py/applications/ElectionsStats/controllers/default.py", line 142, in getParliamentariesByCountry\n    presidentials, parliamentaries, specificData = scrapeData(str(countryValue), str(whichData))\n  File "/Users/amonmoce/Documents/MobileTechAndAppli/web2py/applications/ElectionsStats/controllers/default.py", line 103, in scrapeData\n    numbers = encode_data(numbers)\n  File "/Users/amonmoce/Documents/MobileTechAndAppli/web2py/applications/ElectionsStats/controllers/default.py", line 68, in encode_data\n    new_array.append(element.encode(\'ascii\'))\nUnicodeEncodeError: \'ascii\' codec can\'t encode character u\'\\u200c\' in position 3: ordinal not in range(128)\n'
p219
s.